; Function Attrs: mustprogress nofree norecurse nosync nounwind willreturn memory(read, inaccessiblemem: none) uwtable
define hidden noundef zeroext i1 @_ZNK6Assimp4Ogre20OgreBinarySerializer5AtEndEv(ptr nocapture noundef nonnull readonly align 8 dereferenceable(20) %this) local_unnamed_addr #4 align 2 {
entry:
  %m_reader = getelementptr inbounds i8, ptr %this, i64 8
  %0 = load ptr, ptr %m_reader, align 8
  %mEnd.i = getelementptr inbounds i8, ptr %0, i64 32
  %1 = load ptr, ptr %mEnd.i, align 8
  %mCurrent.i = getelementptr inbounds i8, ptr %0, i64 24
  %2 = load ptr, ptr %mCurrent.i, align 8
  %sub.ptr.lhs.cast.i = ptrtoint ptr %1 to i64
  %sub.ptr.rhs.cast.i = ptrtoint ptr %2 to i64
  %sub.ptr.sub.i = sub i64 %sub.ptr.lhs.cast.i, %sub.ptr.rhs.cast.i
  %conv2.i = and i64 %sub.ptr.sub.i, 4294967295
  %cmp = icmp eq i64 %conv2.i, 0
  ret i1 %cmp
}